; Function Attrs: mustprogress uwtable
define void @_ZNK3gmx25AnalysisDataModuleManager16notifyFrameStartERKNS_23AnalysisDataFrameHeaderE(ptr noundef nonnull readonly align 8 captures(none) dereferenceable(8) %0, ptr noundef nonnull align 4 dereferenceable(12) %1) local_unnamed_addr #2 align 2 {
  %3 = load ptr, ptr %0, align 8, !tbaa !71
  %4 = getelementptr inbounds nuw i8, ptr %3, i64 32
  store i32 2, ptr %4, align 8, !tbaa !19
  %5 = getelementptr inbounds nuw i8, ptr %3, i64 28
  %6 = load i8, ptr %5, align 4, !tbaa !17, !range !60, !noundef !61
  %7 = trunc nuw i8 %6 to i1
  br i1 %7, label %8, label %.loopexit

8:                                                ; preds = %2
  %9 = load ptr, ptr %3, align 8, !tbaa !77
  %10 = getelementptr inbounds nuw i8, ptr %3, i64 8
  %11 = load ptr, ptr %10, align 8, !tbaa !77
  %.not8 = icmp eq ptr %9, %11
  br i1 %.not8, label %.loopexit, label %.lr.ph

.lr.ph:                                           ; preds = %8, %21
  %12 = phi ptr [ %22, %21 ], [ %3, %8 ]
  %.sroa.04.09 = phi ptr [ %23, %21 ], [ %9, %8 ]
  %13 = getelementptr inbounds nuw i8, ptr %.sroa.04.09, i64 16
  %14 = load i8, ptr %13, align 8, !tbaa !82, !range !60, !noundef !61
  %15 = trunc nuw i8 %14 to i1
  br i1 %15, label %21, label %16

16:                                               ; preds = %.lr.ph
  %17 = load ptr, ptr %.sroa.04.09, align 8, !tbaa !78
  %18 = load ptr, ptr %17, align 8, !tbaa !21
  %19 = getelementptr inbounds nuw i8, ptr %18, i64 40
  %20 = load ptr, ptr %19, align 8
  tail call void %20(ptr noundef nonnull align 8 dereferenceable(8) %17, ptr noundef nonnull align 4 dereferenceable(12) %1)
  %.pre = load ptr, ptr %0, align 8, !tbaa !71
  br label %21

21:                                               ; preds = %.lr.ph, %16
  %22 = phi ptr [ %12, %.lr.ph ], [ %.pre, %16 ]
  %23 = getelementptr inbounds nuw i8, ptr %.sroa.04.09, i64 24
  %24 = getelementptr inbounds nuw i8, ptr %22, i64 8
  %25 = load ptr, ptr %24, align 8, !tbaa !77
  %.not = icmp eq ptr %23, %25
  br i1 %.not, label %.loopexit, label %.lr.ph, !llvm.loop !100

.loopexit:                                        ; preds = %21, %8, %2
  ret void
}